target datalayout = "e-m:e-p270:32:32-p271:32:32-p272:64:64-i64:64-i128:128-f80:128-n8:16:32:64-S128"
target triple = "x86_64-pc-linux-gnu"

%struct.lua_State = type { %struct.GCRef, i8, i8, i8, i8, %struct.MRef, %struct.GCRef, ptr, ptr, %struct.MRef, %struct.MRef, %struct.GCRef, %struct.GCRef, ptr, i32 }
%struct.MRef = type { i64 }
%struct.GCRef = type { i64 }
%union.TValue = type { i64 }
%struct.GCfuncL = type { %struct.GCRef, i8, i8, i8, i8, %struct.GCRef, %struct.GCRef, %struct.MRef, [1 x %struct.GCRef] }
%struct.GCupval = type { %struct.GCRef, i8, i8, i8, i8, %union.anon, %struct.MRef, i32 }
%union.anon = type { %struct.anon.1 }
%struct.anon.1 = type { %struct.GCRef, %struct.GCRef }
%struct.GCstr = type { %struct.GCRef, i8, i8, i8, i8, i32, i32, i32 }
%struct.global_State = type { ptr, ptr, %struct.GCState, %struct.GCstr, i8, i8, i8, i8, %struct.StrInternState, i32, %struct.GCRef, %struct.SBuf, %union.TValue, %union.TValue, %struct.Node, %union.TValue, %struct.GCupval, i32, i32, ptr, ptr, ptr, i32, i32, %struct.GCRef, %struct.MRef, %struct.MRef, %struct.PRNGState, [39 x %struct.GCRef] }
%struct.GCState = type { i64, i64, i8, i8, i8, i8, i32, %struct.GCRef, %struct.MRef, %struct.GCRef, %struct.GCRef, %struct.GCRef, %struct.GCRef, i64, i64, i32, i32, %struct.MRef }
%struct.StrInternState = type { ptr, i32, i32, i32, i8, i8, i8, i8, i64 }
%struct.SBuf = type { ptr, ptr, ptr, %struct.MRef }
%struct.Node = type { %union.TValue, %union.TValue, %struct.MRef }
%struct.PRNGState = type { [4 x i64] }

@lj_bc_mode = external hidden constant [0 x i16], align 2
@.str.6 = private unnamed_addr constant [11 x i8] c"metamethod\00", align 1

; Function Attrs: nounwind uwtable
define hidden ptr @lj_debug_funcname(ptr noundef %0, ptr noundef %1, ptr noundef %2) #0 {
  %4 = alloca ptr, align 8
  %5 = alloca ptr, align 8
  %6 = alloca ptr, align 8
  %7 = alloca ptr, align 8
  %8 = alloca ptr, align 8
  %9 = alloca ptr, align 8
  %10 = alloca i32, align 4
  %11 = alloca i32, align 4
  %12 = alloca ptr, align 8
  %13 = alloca ptr, align 8
  %14 = alloca i32, align 4
  %15 = alloca i32, align 4
  store ptr %0, ptr %5, align 8, !tbaa !4
  store ptr %1, ptr %6, align 8, !tbaa !19
  store ptr %2, ptr %7, align 8, !tbaa !47
  call void @llvm.lifetime.start.p0(i64 8, ptr %8) #8
  call void @llvm.lifetime.start.p0(i64 8, ptr %9) #8
  call void @llvm.lifetime.start.p0(i64 4, ptr %10) #8
  %16 = load ptr, ptr %6, align 8, !tbaa !19
  %17 = load ptr, ptr %5, align 8, !tbaa !4
  %18 = getelementptr inbounds nuw %struct.lua_State, ptr %17, i32 0, i32 10
  %19 = getelementptr inbounds nuw %struct.MRef, ptr %18, i32 0, i32 0
  %20 = load i64, ptr %19, align 8, !tbaa !13
  %21 = inttoptr i64 %20 to ptr
  %22 = getelementptr inbounds %union.TValue, ptr %21, i64 1
  %23 = icmp ule ptr %16, %22
  br i1 %23, label %24, label %25

24:                                               ; preds = %3
  store ptr null, ptr %4, align 8
  store i32 1, ptr %11, align 4
  br label %141

25:                                               ; preds = %3
  %26 = load ptr, ptr %6, align 8, !tbaa !19
  %27 = load i64, ptr %26, align 8, !tbaa !21
  %28 = and i64 %27, 7
  %29 = icmp eq i64 %28, 3
  br i1 %29, label %30, label %37

30:                                               ; preds = %25
  %31 = load ptr, ptr %6, align 8, !tbaa !19
  %32 = load ptr, ptr %6, align 8, !tbaa !19
  %33 = load i64, ptr %32, align 8, !tbaa !21
  %34 = and i64 %33, -8
  %35 = sub i64 0, %34
  %36 = getelementptr inbounds i8, ptr %31, i64 %35
  store ptr %36, ptr %6, align 8, !tbaa !19
  br label %37

37:                                               ; preds = %30, %25
  %38 = load ptr, ptr %6, align 8, !tbaa !19
  %39 = load i64, ptr %38, align 8, !tbaa !21
  %40 = and i64 %39, 3
  %41 = icmp eq i64 %40, 0
  br i1 %41, label %42, label %55

42:                                               ; preds = %37
  %43 = load ptr, ptr %6, align 8, !tbaa !19
  %44 = load ptr, ptr %6, align 8, !tbaa !19
  %45 = load i64, ptr %44, align 8, !tbaa !21
  %46 = inttoptr i64 %45 to ptr
  %47 = getelementptr inbounds i32, ptr %46, i64 -1
  %48 = load i32, ptr %47, align 4, !tbaa !9
  %49 = lshr i32 %48, 8
  %50 = and i32 %49, 255
  %51 = add i32 2, %50
  %52 = zext i32 %51 to i64
  %53 = sub i64 0, %52
  %54 = getelementptr inbounds %union.TValue, ptr %43, i64 %53
  br label %62

55:                                               ; preds = %37
  %56 = load ptr, ptr %6, align 8, !tbaa !19
  %57 = load ptr, ptr %6, align 8, !tbaa !19
  %58 = load i64, ptr %57, align 8, !tbaa !21
  %59 = and i64 %58, -8
  %60 = sub i64 0, %59
  %61 = getelementptr inbounds i8, ptr %56, i64 %60
  br label %62

62:                                               ; preds = %55, %42
  %63 = phi ptr [ %54, %42 ], [ %61, %55 ]
  store ptr %63, ptr %8, align 8, !tbaa !19
  %64 = load ptr, ptr %8, align 8, !tbaa !19
  %65 = getelementptr inbounds %union.TValue, ptr %64, i64 -1
  %66 = getelementptr inbounds nuw %struct.GCRef, ptr %65, i32 0, i32 0
  %67 = load i64, ptr %66, align 8, !tbaa !21
  %68 = and i64 %67, 140737488355327
  %69 = inttoptr i64 %68 to ptr
  store ptr %69, ptr %9, align 8, !tbaa !42
  %70 = load ptr, ptr %5, align 8, !tbaa !4
  %71 = load ptr, ptr %9, align 8, !tbaa !42
  %72 = load ptr, ptr %6, align 8, !tbaa !19
  %73 = call i32 @debug_framepc(ptr noundef %70, ptr noundef %71, ptr noundef %72)
  store i32 %73, ptr %10, align 4, !tbaa !9
  %74 = load i32, ptr %10, align 4, !tbaa !9
  %75 = icmp ne i32 %74, -1
  br i1 %75, label %76, label %140

76:                                               ; preds = %62
  call void @llvm.lifetime.start.p0(i64 8, ptr %12) #8
  %77 = load ptr, ptr %9, align 8, !tbaa !42
  %78 = getelementptr inbounds nuw %struct.GCfuncL, ptr %77, i32 0, i32 7
  %79 = getelementptr inbounds nuw %struct.MRef, ptr %78, i32 0, i32 0
  %80 = load i64, ptr %79, align 8, !tbaa !21
  %81 = inttoptr i64 %80 to ptr
  %82 = getelementptr inbounds i8, ptr %81, i64 -104
  store ptr %82, ptr %12, align 8, !tbaa !24
  call void @llvm.lifetime.start.p0(i64 8, ptr %13) #8
  %83 = load ptr, ptr %12, align 8, !tbaa !24
  %84 = getelementptr inbounds nuw i8, ptr %83, i64 104
  %85 = load i32, ptr %10, align 4, !tbaa !9
  %86 = zext i32 %85 to i64
  %87 = getelementptr inbounds nuw i32, ptr %84, i64 %86
  store ptr %87, ptr %13, align 8, !tbaa !11
  call void @llvm.lifetime.start.p0(i64 4, ptr %14) #8
  %88 = load ptr, ptr %13, align 8, !tbaa !11
  %89 = load i32, ptr %88, align 4, !tbaa !9
  %90 = and i32 %89, 255
  %91 = zext i32 %90 to i64
  %92 = getelementptr inbounds nuw [0 x i16], ptr @lj_bc_mode, i64 0, i64 %91
  %93 = load i16, ptr %92, align 2, !tbaa !33
  %94 = zext i16 %93 to i32
  %95 = ashr i32 %94, 11
  store i32 %95, ptr %14, align 4, !tbaa !9
  %96 = load i32, ptr %14, align 4, !tbaa !9
  %97 = icmp eq i32 %96, 9
  br i1 %97, label %98, label %116

98:                                               ; preds = %76
  call void @llvm.lifetime.start.p0(i64 4, ptr %15) #8
  %99 = load ptr, ptr %13, align 8, !tbaa !11
  %100 = load i32, ptr %99, align 4, !tbaa !9
  %101 = lshr i32 %100, 8
  %102 = and i32 %101, 255
  store i32 %102, ptr %15, align 4, !tbaa !9
  %103 = load ptr, ptr %13, align 8, !tbaa !11
  %104 = load i32, ptr %103, align 4, !tbaa !9
  %105 = and i32 %104, 255
  %106 = icmp eq i32 %105, 69
  br i1 %106, label %107, label %110

107:                                              ; preds = %98
  %108 = load i32, ptr %15, align 4, !tbaa !9
  %109 = sub i32 %108, 3
  store i32 %109, ptr %15, align 4, !tbaa !9
  br label %110

110:                                              ; preds = %107, %98
  %111 = load ptr, ptr %12, align 8, !tbaa !24
  %112 = load ptr, ptr %13, align 8, !tbaa !11
  %113 = load i32, ptr %15, align 4, !tbaa !9
  %114 = load ptr, ptr %7, align 8, !tbaa !47
  %115 = call ptr @lj_debug_slotname(ptr noundef %111, ptr noundef %112, i32 noundef %113, ptr noundef %114)
  store ptr %115, ptr %4, align 8
  store i32 1, ptr %11, align 4
  call void @llvm.lifetime.end.p0(i64 4, ptr %15) #8
  br label %137

116:                                              ; preds = %76
  %117 = load i32, ptr %14, align 4, !tbaa !9
  %118 = icmp ne i32 %117, 22
  br i1 %118, label %119, label %135

119:                                              ; preds = %116
  %120 = load ptr, ptr %5, align 8, !tbaa !4
  %121 = getelementptr inbounds nuw %struct.lua_State, ptr %120, i32 0, i32 5
  %122 = getelementptr inbounds nuw %struct.MRef, ptr %121, i32 0, i32 0
  %123 = load i64, ptr %122, align 8, !tbaa !55
  %124 = inttoptr i64 %123 to ptr
  %125 = getelementptr inbounds nuw %struct.global_State, ptr %124, i32 0, i32 28
  %126 = load i32, ptr %14, align 4, !tbaa !9
  %127 = add i32 0, %126
  %128 = zext i32 %127 to i64
  %129 = getelementptr inbounds nuw [39 x %struct.GCRef], ptr %125, i64 0, i64 %128
  %130 = getelementptr inbounds nuw %struct.GCRef, ptr %129, i32 0, i32 0
  %131 = load i64, ptr %130, align 8, !tbaa !50
  %132 = inttoptr i64 %131 to ptr
  %133 = getelementptr inbounds %struct.GCstr, ptr %132, i64 1
  %134 = load ptr, ptr %7, align 8, !tbaa !47
  store ptr %133, ptr %134, align 8, !tbaa !35
  store ptr @.str.6, ptr %4, align 8
  store i32 1, ptr %11, align 4
  br label %137

135:                                              ; preds = %116
  br label %136

136:                                              ; preds = %135
  store i32 0, ptr %11, align 4
  br label %137

137:                                              ; preds = %136, %119, %110
  call void @llvm.lifetime.end.p0(i64 4, ptr %14) #8
  call void @llvm.lifetime.end.p0(i64 8, ptr %13) #8
  call void @llvm.lifetime.end.p0(i64 8, ptr %12) #8
  %138 = load i32, ptr %11, align 4
  switch i32 %138, label %141 [
    i32 0, label %139
  ]

139:                                              ; preds = %137
  br label %140

140:                                              ; preds = %139, %62
  store ptr null, ptr %4, align 8
  store i32 1, ptr %11, align 4
  br label %141

141:                                              ; preds = %140, %137, %24
  call void @llvm.lifetime.end.p0(i64 4, ptr %10) #8
  call void @llvm.lifetime.end.p0(i64 8, ptr %9) #8
  call void @llvm.lifetime.end.p0(i64 8, ptr %8) #8
  %142 = load ptr, ptr %4, align 8
  ret ptr %142
}