; Function Attrs: nounwind uwtable
define hidden noundef ptr @lj_debug_funcname(ptr noundef readonly captures(none) %0, ptr noundef captures(address) %1, ptr noundef writeonly captures(none) %2) local_unnamed_addr #4 {
  %4 = getelementptr inbounds nuw i8, ptr %0, i64 56
  %5 = load i64, ptr %4, align 8, !tbaa !4
  %6 = inttoptr i64 %5 to ptr
  %7 = getelementptr inbounds nuw i8, ptr %6, i64 8
  %.not = icmp ugt ptr %1, %7
  br i1 %.not, label %8, label %.thread

8:                                                ; preds = %3
  %9 = load i64, ptr %1, align 8, !tbaa !15
  %10 = and i64 %9, 7
  %11 = icmp eq i64 %10, 3
  %12 = and i64 %9, -8
  %13 = sub i64 0, %12
  %.033.idx = select i1 %11, i64 %13, i64 0
  %.033 = getelementptr inbounds i8, ptr %1, i64 %.033.idx
  %14 = load i64, ptr %.033, align 8, !tbaa !15
  %15 = and i64 %14, 3
  %16 = icmp eq i64 %15, 0
  br i1 %16, label %17, label %27

17:                                               ; preds = %8
  %18 = inttoptr i64 %14 to ptr
  %19 = getelementptr inbounds i8, ptr %18, i64 -4
  %20 = load i32, ptr %19, align 4, !tbaa !18
  %21 = lshr i32 %20, 8
  %22 = and i32 %21, 255
  %23 = add nuw nsw i32 %22, 2
  %24 = zext nneg i32 %23 to i64
  %25 = sub nsw i64 0, %24
  %26 = getelementptr inbounds %union.TValue, ptr %.033, i64 %25
  br label %31

27:                                               ; preds = %8
  %28 = and i64 %14, -8
  %29 = sub i64 0, %28
  %30 = getelementptr inbounds i8, ptr %.033, i64 %29
  br label %31

31:                                               ; preds = %27, %17
  %32 = phi ptr [ %26, %17 ], [ %30, %27 ]
  %33 = getelementptr inbounds i8, ptr %32, i64 -8
  %34 = load i64, ptr %33, align 8, !tbaa !15
  %35 = and i64 %34, 140737488355327
  %36 = inttoptr i64 %35 to ptr
  %37 = tail call fastcc i32 @debug_framepc(ptr noundef nonnull %0, ptr noundef %36, ptr noundef nonnull %.033)
  %.not38 = icmp eq i32 %37, -1
  br i1 %.not38, label %.thread, label %38

38:                                               ; preds = %31
  %39 = getelementptr inbounds nuw i8, ptr %36, i64 32
  %40 = load i64, ptr %39, align 8, !tbaa !15
  %41 = inttoptr i64 %40 to ptr
  %42 = zext i32 %37 to i64
  %43 = getelementptr inbounds nuw i32, ptr %41, i64 %42
  %44 = load i32, ptr %43, align 4, !tbaa !18
  %45 = and i32 %44, 255
  %46 = zext nneg i32 %45 to i64
  %47 = getelementptr inbounds nuw [0 x i16], ptr @lj_bc_mode, i64 0, i64 %46
  %48 = load i16, ptr %47, align 2, !tbaa !25
  %49 = lshr i16 %48, 11
  switch i16 %49, label %57 [
    i16 9, label %50
    i16 22, label %.thread
  ]

50:                                               ; preds = %38
  %51 = getelementptr inbounds i8, ptr %41, i64 -104
  %52 = lshr i32 %44, 8
  %53 = and i32 %52, 255
  %54 = icmp eq i32 %45, 69
  %55 = add nsw i32 %53, -3
  %spec.select = select i1 %54, i32 %55, i32 %53
  %56 = tail call ptr @lj_debug_slotname(ptr noundef nonnull %51, ptr noundef nonnull %43, i32 noundef %spec.select, ptr noundef %2)
  br label %.thread

57:                                               ; preds = %38
  %58 = getelementptr inbounds nuw i8, ptr %0, i64 16
  %59 = load i64, ptr %58, align 8, !tbaa !41
  %60 = inttoptr i64 %59 to ptr
  %61 = getelementptr inbounds nuw i8, ptr %60, i64 424
  %62 = zext nneg i16 %49 to i64
  %63 = getelementptr inbounds nuw [39 x %struct.GCRef], ptr %61, i64 0, i64 %62
  %64 = load i64, ptr %63, align 8, !tbaa !40
  %65 = inttoptr i64 %64 to ptr
  %66 = getelementptr inbounds nuw i8, ptr %65, i64 24
  store ptr %66, ptr %2, align 8, !tbaa !35
  br label %.thread

.thread:                                          ; preds = %57, %50, %31, %38, %3
  %.032 = phi ptr [ null, %3 ], [ null, %38 ], [ null, %31 ], [ @.str.6, %57 ], [ %56, %50 ]
  ret ptr %.032
}